target datalayout = "e-m:e-p270:32:32-p271:32:32-p272:64:64-i64:64-i128:128-f80:128-n8:16:32:64-S128"
target triple = "x86_64-pc-linux-gnu"

%struct.ForEachState = type { ptr, i32 }
%union.ListCell = type { ptr }
%struct.RestrictInfo = type { i32, ptr, i8, i8, i8, i8, i8, i8, i32, i32, i32, ptr, ptr, ptr, ptr, ptr, ptr, ptr, i32, ptr, %struct.QualCost, double, double, ptr, ptr, ptr, ptr, ptr, ptr, i8, i32, double, double, double, double, i32, i32 }
%struct.QualCost = type { double, double }
%struct.List = type { i32, i32, i32, ptr, [0 x %union.ListCell] }
%struct.IndexClause = type { i32, ptr, ptr, i8, i16, ptr }

; Function Attrs: nounwind uwtable
define dso_local zeroext i1 @is_redundant_with_indexclauses(ptr noundef %0, ptr noundef %1) #0 {
  %3 = alloca i1, align 1
  %4 = alloca ptr, align 8
  %5 = alloca ptr, align 8
  %6 = alloca ptr, align 8
  %7 = alloca ptr, align 8
  %8 = alloca %struct.ForEachState, align 8
  %9 = alloca i32, align 4
  %10 = alloca ptr, align 8
  %11 = alloca ptr, align 8
  store ptr %0, ptr %4, align 8
  store ptr %1, ptr %5, align 8
  call void @llvm.lifetime.start.p0(i64 8, ptr %6) #6
  %12 = load ptr, ptr %4, align 8
  %13 = getelementptr inbounds nuw %struct.RestrictInfo, ptr %12, i32 0, i32 19
  %14 = load ptr, ptr %13, align 8
  store ptr %14, ptr %6, align 8
  call void @llvm.lifetime.start.p0(i64 8, ptr %7) #6
  call void @llvm.lifetime.start.p0(i64 16, ptr %8) #6
  %15 = getelementptr inbounds nuw %struct.ForEachState, ptr %8, i32 0, i32 0
  %16 = load ptr, ptr %5, align 8
  store ptr %16, ptr %15, align 8
  %17 = getelementptr inbounds nuw %struct.ForEachState, ptr %8, i32 0, i32 1
  store i32 0, ptr %17, align 8
  %18 = getelementptr i8, ptr %8, i64 12
  call void @llvm.memset.p0.i64(ptr align 4 %18, i8 0, i64 4, i1 false)
  br label %19

19:                                               ; preds = %75, %2
  %20 = getelementptr inbounds nuw %struct.ForEachState, ptr %8, i32 0, i32 0
  %21 = load ptr, ptr %20, align 8
  %22 = icmp ne ptr %21, null
  br i1 %22, label %23, label %40

23:                                               ; preds = %19
  %24 = getelementptr inbounds nuw %struct.ForEachState, ptr %8, i32 0, i32 1
  %25 = load i32, ptr %24, align 8
  %26 = getelementptr inbounds nuw %struct.ForEachState, ptr %8, i32 0, i32 0
  %27 = load ptr, ptr %26, align 8
  %28 = getelementptr inbounds nuw %struct.List, ptr %27, i32 0, i32 1
  %29 = load i32, ptr %28, align 4
  %30 = icmp slt i32 %25, %29
  br i1 %30, label %31, label %40

31:                                               ; preds = %23
  %32 = getelementptr inbounds nuw %struct.ForEachState, ptr %8, i32 0, i32 0
  %33 = load ptr, ptr %32, align 8
  %34 = getelementptr inbounds nuw %struct.List, ptr %33, i32 0, i32 3
  %35 = load ptr, ptr %34, align 8
  %36 = getelementptr inbounds nuw %struct.ForEachState, ptr %8, i32 0, i32 1
  %37 = load i32, ptr %36, align 8
  %38 = sext i32 %37 to i64
  %39 = getelementptr inbounds %union.ListCell, ptr %35, i64 %38
  store ptr %39, ptr %7, align 8
  br label %41

40:                                               ; preds = %23, %19
  store ptr null, ptr %7, align 8
  br label %41

41:                                               ; preds = %40, %31
  %42 = phi i32 [ 1, %31 ], [ 0, %40 ]
  %43 = icmp ne i32 %42, 0
  br i1 %43, label %45, label %44

44:                                               ; preds = %41
  store i32 2, ptr %9, align 4
  br label %79

45:                                               ; preds = %41
  call void @llvm.lifetime.start.p0(i64 8, ptr %10) #6
  %46 = load ptr, ptr %7, align 8
  %47 = load ptr, ptr %46, align 8
  store ptr %47, ptr %10, align 8
  call void @llvm.lifetime.start.p0(i64 8, ptr %11) #6
  %48 = load ptr, ptr %10, align 8
  %49 = getelementptr inbounds nuw %struct.IndexClause, ptr %48, i32 0, i32 1
  %50 = load ptr, ptr %49, align 8
  store ptr %50, ptr %11, align 8
  %51 = load ptr, ptr %10, align 8
  %52 = getelementptr inbounds nuw %struct.IndexClause, ptr %51, i32 0, i32 3
  %53 = load i8, ptr %52, align 8, !range !4, !noundef !5
  %54 = trunc i8 %53 to i1
  br i1 %54, label %55, label %56

55:                                               ; preds = %45
  store i32 4, ptr %9, align 4
  br label %72

56:                                               ; preds = %45
  %57 = load ptr, ptr %4, align 8
  %58 = load ptr, ptr %11, align 8
  %59 = icmp eq ptr %57, %58
  br i1 %59, label %60, label %61

60:                                               ; preds = %56
  store i1 true, ptr %3, align 1
  store i32 1, ptr %9, align 4
  br label %72

61:                                               ; preds = %56
  %62 = load ptr, ptr %6, align 8
  %63 = icmp ne ptr %62, null
  br i1 %63, label %64, label %71

64:                                               ; preds = %61
  %65 = load ptr, ptr %11, align 8
  %66 = getelementptr inbounds nuw %struct.RestrictInfo, ptr %65, i32 0, i32 19
  %67 = load ptr, ptr %66, align 8
  %68 = load ptr, ptr %6, align 8
  %69 = icmp eq ptr %67, %68
  br i1 %69, label %70, label %71

70:                                               ; preds = %64
  store i1 true, ptr %3, align 1
  store i32 1, ptr %9, align 4
  br label %72

71:                                               ; preds = %64, %61
  store i32 0, ptr %9, align 4
  br label %72

72:                                               ; preds = %71, %70, %60, %55
  call void @llvm.lifetime.end.p0(i64 8, ptr %11) #6
  call void @llvm.lifetime.end.p0(i64 8, ptr %10) #6
  %73 = load i32, ptr %9, align 4
  switch i32 %73, label %79 [
    i32 0, label %74
    i32 4, label %75
  ]

74:                                               ; preds = %72
  br label %75

75:                                               ; preds = %74, %72
  %76 = getelementptr inbounds nuw %struct.ForEachState, ptr %8, i32 0, i32 1
  %77 = load i32, ptr %76, align 8
  %78 = add i32 %77, 1
  store i32 %78, ptr %76, align 8
  br label %19, !llvm.loop !69

79:                                               ; preds = %72, %44
  call void @llvm.lifetime.end.p0(i64 16, ptr %8) #6
  %80 = load i32, ptr %9, align 4
  switch i32 %80, label %82 [
    i32 2, label %81
  ]

81:                                               ; preds = %79
  store i1 false, ptr %3, align 1
  store i32 1, ptr %9, align 4
  br label %82

82:                                               ; preds = %81, %79
  call void @llvm.lifetime.end.p0(i64 8, ptr %7) #6
  call void @llvm.lifetime.end.p0(i64 8, ptr %6) #6
  %83 = load i1, ptr %3, align 1
  ret i1 %83
}