; Function Attrs: nofree norecurse nosync nounwind memory(read, inaccessiblemem: none) uwtable
define dso_local zeroext i1 @is_redundant_with_indexclauses(ptr noundef readonly captures(address) %0, ptr noundef readonly captures(address_is_null) %1) local_unnamed_addr #4 {
  %3 = getelementptr inbounds nuw i8, ptr %0, i64 104
  %4 = load ptr, ptr %3, align 8
  %.fr = freeze ptr %4
  %.not = icmp eq ptr %1, null
  br i1 %.not, label %.critedge, label %.lr.ph

.lr.ph:                                           ; preds = %2
  %5 = getelementptr inbounds nuw i8, ptr %1, i64 4
  %6 = load i32, ptr %5, align 4
  %7 = getelementptr inbounds nuw i8, ptr %1, i64 16
  %.not23 = icmp eq ptr %.fr, null
  %8 = icmp sgt i32 %6, 0
  br i1 %.not23, label %.lr.ph.split.us.split, label %.lr.ph.split.split

.lr.ph.split.us.split:                            ; preds = %.lr.ph
  br i1 %8, label %.lr.ph54, label %.critedge

.lr.ph54:                                         ; preds = %.lr.ph.split.us.split
  %9 = load ptr, ptr %7, align 8
  %wide.trip.count66 = zext nneg i32 %6 to i64
  br label %10

10:                                               ; preds = %10, %.lr.ph54
  %indvars.iv63 = phi i64 [ 0, %.lr.ph54 ], [ %indvars.iv.next64, %10 ]
  %11 = getelementptr inbounds nuw %union.ListCell, ptr %9, i64 %indvars.iv63
  %12 = load ptr, ptr %11, align 8
  %13 = getelementptr inbounds nuw i8, ptr %12, i64 8
  %14 = load ptr, ptr %13, align 8
  %15 = getelementptr inbounds nuw i8, ptr %12, i64 24
  %16 = load i8, ptr %15, align 8, !range !4, !noundef !5
  %17 = trunc nuw i8 %16 to i1
  %18 = icmp ne ptr %0, %14
  %or.cond58.not = select i1 %17, i1 true, i1 %18
  %indvars.iv.next64 = add nuw nsw i64 %indvars.iv63, 1
  %exitcond67.not = icmp ne i64 %indvars.iv.next64, %wide.trip.count66
  %or.cond.not = select i1 %or.cond58.not, i1 %exitcond67.not, i1 false
  br i1 %or.cond.not, label %10, label %.critedge.loopexit

.lr.ph.split.split:                               ; preds = %.lr.ph
  br i1 %8, label %.lr.ph48, label %.critedge

.lr.ph48:                                         ; preds = %.lr.ph.split.split
  %19 = load ptr, ptr %7, align 8
  %wide.trip.count = zext nneg i32 %6 to i64
  br label %20

20:                                               ; preds = %.lr.ph48, %34
  %indvars.iv = phi i64 [ 0, %.lr.ph48 ], [ %indvars.iv.next, %34 ]
  %21 = getelementptr inbounds nuw %union.ListCell, ptr %19, i64 %indvars.iv
  %22 = load ptr, ptr %21, align 8
  %23 = getelementptr inbounds nuw i8, ptr %22, i64 8
  %24 = load ptr, ptr %23, align 8
  %25 = getelementptr inbounds nuw i8, ptr %22, i64 24
  %26 = load i8, ptr %25, align 8, !range !4, !noundef !5
  %27 = trunc nuw i8 %26 to i1
  br i1 %27, label %34, label %28

28:                                               ; preds = %20
  %29 = icmp eq ptr %0, %24
  br i1 %29, label %.critedge, label %30

30:                                               ; preds = %28
  %31 = getelementptr inbounds nuw i8, ptr %24, i64 104
  %32 = load ptr, ptr %31, align 8
  %33 = icmp eq ptr %32, %.fr
  br i1 %33, label %.critedge, label %34

34:                                               ; preds = %30, %20
  %indvars.iv.next = add nuw nsw i64 %indvars.iv, 1
  %exitcond.not = icmp eq i64 %indvars.iv.next, %wide.trip.count
  br i1 %exitcond.not, label %.critedge, label %20

.critedge.loopexit:                               ; preds = %10
  %.3.ph = xor i1 %or.cond58.not, true
  br label %.critedge

.critedge:                                        ; preds = %34, %28, %30, %.critedge.loopexit, %.lr.ph.split.us.split, %.lr.ph.split.split, %2
  %.3 = phi i1 [ false, %2 ], [ false, %.lr.ph.split.us.split ], [ false, %.lr.ph.split.split ], [ %.3.ph, %.critedge.loopexit ], [ true, %30 ], [ true, %28 ], [ false, %34 ]
  ret i1 %.3
}